ARM GAS  C:\Users\LY\AppData\Local\Temp\ccQSeGzK.s 			page 1


   1              		.cpu cortex-m4
   2              		.eabi_attribute 27, 1
   3              		.eabi_attribute 28, 1
   4              		.eabi_attribute 20, 1
   5              		.eabi_attribute 21, 1
   6              		.eabi_attribute 23, 3
   7              		.eabi_attribute 24, 1
   8              		.eabi_attribute 25, 1
   9              		.eabi_attribute 26, 1
  10              		.eabi_attribute 30, 6
  11              		.eabi_attribute 34, 1
  12              		.eabi_attribute 18, 4
  13              		.file	"osal_semp_demo.c"
  14              		.text
  15              	.Ltext0:
  16              		.cfi_sections	.debug_frame
  17              		.comm	sync_semp,4,4
  18              		.section	.rodata
  19              		.align	2
  20              	.LC0:
  21 0000 7461736B 		.ascii	"task 1 post a semp!\015\000"
  21      20312070 
  21      6F737420 
  21      61207365 
  21      6D70210D 
  22              		.section	.text.user_task1_entry,"ax",%progbits
  23              		.align	1
  24              		.syntax unified
  25              		.thumb
  26              		.thumb_func
  27              		.fpu fpv4-sp-d16
  29              	user_task1_entry:
  30              	.LFB3:
  31              		.file 1 "D:/BearPi/LiteOS/osal_semp_demo/targets/STM32L431_BearPi/Demos/osal_kernel_demo/osal_semp
   1:D:/BearPi/LiteOS/osal_semp_demo/targets/STM32L431_BearPi/Demos/osal_kernel_demo\osal_semp_demo.c **** /* 使用osal接口需要包含该头文件 */
   2:D:/BearPi/LiteOS/osal_semp_demo/targets/STM32L431_BearPi/Demos/osal_kernel_demo\osal_semp_demo.c **** #include <osal.h>
   3:D:/BearPi/LiteOS/osal_semp_demo/targets/STM32L431_BearPi/Demos/osal_kernel_demo\osal_semp_demo.c **** 
   4:D:/BearPi/LiteOS/osal_semp_demo/targets/STM32L431_BearPi/Demos/osal_kernel_demo\osal_semp_demo.c **** /* 任务优先级宏定义（shell任务的优先级为10） */
   5:D:/BearPi/LiteOS/osal_semp_demo/targets/STM32L431_BearPi/Demos/osal_kernel_demo\osal_semp_demo.c **** #define USER_TASK1_PRI  12  //低优先级
   6:D:/BearPi/LiteOS/osal_semp_demo/targets/STM32L431_BearPi/Demos/osal_kernel_demo\osal_semp_demo.c **** #define USER_TASK2_PRI  11  //高优先级
   7:D:/BearPi/LiteOS/osal_semp_demo/targets/STM32L431_BearPi/Demos/osal_kernel_demo\osal_semp_demo.c **** 
   8:D:/BearPi/LiteOS/osal_semp_demo/targets/STM32L431_BearPi/Demos/osal_kernel_demo\osal_semp_demo.c **** /* 信号量索引ID */
   9:D:/BearPi/LiteOS/osal_semp_demo/targets/STM32L431_BearPi/Demos/osal_kernel_demo\osal_semp_demo.c **** osal_semp_t sync_semp;
  10:D:/BearPi/LiteOS/osal_semp_demo/targets/STM32L431_BearPi/Demos/osal_kernel_demo\osal_semp_demo.c **** 
  11:D:/BearPi/LiteOS/osal_semp_demo/targets/STM32L431_BearPi/Demos/osal_kernel_demo\osal_semp_demo.c **** /* 任务task1入口函数 */
  12:D:/BearPi/LiteOS/osal_semp_demo/targets/STM32L431_BearPi/Demos/osal_kernel_demo\osal_semp_demo.c **** static int user_task1_entry()
  13:D:/BearPi/LiteOS/osal_semp_demo/targets/STM32L431_BearPi/Demos/osal_kernel_demo\osal_semp_demo.c **** {
  32              		.loc 1 13 0
  33              		.cfi_startproc
  34              		@ args = 0, pretend = 0, frame = 0
  35              		@ frame_needed = 1, uses_anonymous_args = 0
  36 0000 80B5     		push	{r7, lr}
  37              	.LCFI0:
  38              		.cfi_def_cfa_offset 8
  39              		.cfi_offset 7, -8
  40              		.cfi_offset 14, -4
  41 0002 00AF     		add	r7, sp, #0
ARM GAS  C:\Users\LY\AppData\Local\Temp\ccQSeGzK.s 			page 2


  42              	.LCFI1:
  43              		.cfi_def_cfa_register 7
  44              	.L2:
  14:D:/BearPi/LiteOS/osal_semp_demo/targets/STM32L431_BearPi/Demos/osal_kernel_demo\osal_semp_demo.c ****     while(1)
  15:D:/BearPi/LiteOS/osal_semp_demo/targets/STM32L431_BearPi/Demos/osal_kernel_demo\osal_semp_demo.c ****     {
  16:D:/BearPi/LiteOS/osal_semp_demo/targets/STM32L431_BearPi/Demos/osal_kernel_demo\osal_semp_demo.c ****         /* 在串口打印信息 */
  17:D:/BearPi/LiteOS/osal_semp_demo/targets/STM32L431_BearPi/Demos/osal_kernel_demo\osal_semp_demo.c ****         printf("task 1 post a semp!\r\n");
  45              		.loc 1 17 0 discriminator 1
  46 0004 0648     		ldr	r0, .L3
  47 0006 FFF7FEFF 		bl	puts
  18:D:/BearPi/LiteOS/osal_semp_demo/targets/STM32L431_BearPi/Demos/osal_kernel_demo\osal_semp_demo.c **** 
  19:D:/BearPi/LiteOS/osal_semp_demo/targets/STM32L431_BearPi/Demos/osal_kernel_demo\osal_semp_demo.c ****         /* 打印完毕释放信号量 */
  20:D:/BearPi/LiteOS/osal_semp_demo/targets/STM32L431_BearPi/Demos/osal_kernel_demo\osal_semp_demo.c ****         osal_semp_post(sync_semp);
  48              		.loc 1 20 0 discriminator 1
  49 000a 064B     		ldr	r3, .L3+4
  50 000c 1B68     		ldr	r3, [r3]
  51 000e 1846     		mov	r0, r3
  52 0010 FFF7FEFF 		bl	osal_semp_post
  21:D:/BearPi/LiteOS/osal_semp_demo/targets/STM32L431_BearPi/Demos/osal_kernel_demo\osal_semp_demo.c **** 
  22:D:/BearPi/LiteOS/osal_semp_demo/targets/STM32L431_BearPi/Demos/osal_kernel_demo\osal_semp_demo.c ****         /* 任务主动挂起2s */
  23:D:/BearPi/LiteOS/osal_semp_demo/targets/STM32L431_BearPi/Demos/osal_kernel_demo\osal_semp_demo.c ****         osal_task_sleep(2*1000);
  53              		.loc 1 23 0 discriminator 1
  54 0014 4FF4FA60 		mov	r0, #2000
  55 0018 FFF7FEFF 		bl	osal_task_sleep
  17:D:/BearPi/LiteOS/osal_semp_demo/targets/STM32L431_BearPi/Demos/osal_kernel_demo\osal_semp_demo.c **** 
  56              		.loc 1 17 0 discriminator 1
  57 001c F2E7     		b	.L2
  58              	.L4:
  59 001e 00BF     		.align	2
  60              	.L3:
  61 0020 00000000 		.word	.LC0
  62 0024 00000000 		.word	sync_semp
  63              		.cfi_endproc
  64              	.LFE3:
  66              		.section	.rodata
  67 0015 000000   		.align	2
  68              	.LC1:
  69 0018 7461736B 		.ascii	"task2 is waiting for a semp...\015\000"
  69      32206973 
  69      20776169 
  69      74696E67 
  69      20666F72 
  70              		.align	2
  71              	.LC2:
  72 0038 7461736B 		.ascii	"task 2 access a semp!\015\000"
  72      20322061 
  72      63636573 
  72      73206120 
  72      73656D70 
  73              		.section	.text.user_task2_entry,"ax",%progbits
  74              		.align	1
  75              		.syntax unified
  76              		.thumb
  77              		.thumb_func
  78              		.fpu fpv4-sp-d16
  80              	user_task2_entry:
  81              	.LFB4:
ARM GAS  C:\Users\LY\AppData\Local\Temp\ccQSeGzK.s 			page 3


  24:D:/BearPi/LiteOS/osal_semp_demo/targets/STM32L431_BearPi/Demos/osal_kernel_demo\osal_semp_demo.c ****     }
  25:D:/BearPi/LiteOS/osal_semp_demo/targets/STM32L431_BearPi/Demos/osal_kernel_demo\osal_semp_demo.c **** }
  26:D:/BearPi/LiteOS/osal_semp_demo/targets/STM32L431_BearPi/Demos/osal_kernel_demo\osal_semp_demo.c **** 
  27:D:/BearPi/LiteOS/osal_semp_demo/targets/STM32L431_BearPi/Demos/osal_kernel_demo\osal_semp_demo.c **** /* 任务task2入口函数 */
  28:D:/BearPi/LiteOS/osal_semp_demo/targets/STM32L431_BearPi/Demos/osal_kernel_demo\osal_semp_demo.c **** static int user_task2_entry()
  29:D:/BearPi/LiteOS/osal_semp_demo/targets/STM32L431_BearPi/Demos/osal_kernel_demo\osal_semp_demo.c **** {
  82              		.loc 1 29 0
  83              		.cfi_startproc
  84              		@ args = 0, pretend = 0, frame = 0
  85              		@ frame_needed = 1, uses_anonymous_args = 0
  86 0000 80B5     		push	{r7, lr}
  87              	.LCFI2:
  88              		.cfi_def_cfa_offset 8
  89              		.cfi_offset 7, -8
  90              		.cfi_offset 14, -4
  91 0002 00AF     		add	r7, sp, #0
  92              	.LCFI3:
  93              		.cfi_def_cfa_register 7
  94              	.L6:
  30:D:/BearPi/LiteOS/osal_semp_demo/targets/STM32L431_BearPi/Demos/osal_kernel_demo\osal_semp_demo.c ****     while (1)
  31:D:/BearPi/LiteOS/osal_semp_demo/targets/STM32L431_BearPi/Demos/osal_kernel_demo\osal_semp_demo.c ****     {
  32:D:/BearPi/LiteOS/osal_semp_demo/targets/STM32L431_BearPi/Demos/osal_kernel_demo\osal_semp_demo.c ****         /* 优先级高，抢占执行打印信息 */
  33:D:/BearPi/LiteOS/osal_semp_demo/targets/STM32L431_BearPi/Demos/osal_kernel_demo\osal_semp_demo.c ****         printf("task2 is waiting for a semp...\r\n");
  95              		.loc 1 33 0 discriminator 1
  96 0004 0648     		ldr	r0, .L7
  97 0006 FFF7FEFF 		bl	puts
  34:D:/BearPi/LiteOS/osal_semp_demo/targets/STM32L431_BearPi/Demos/osal_kernel_demo\osal_semp_demo.c **** 
  35:D:/BearPi/LiteOS/osal_semp_demo/targets/STM32L431_BearPi/Demos/osal_kernel_demo\osal_semp_demo.c ****         /* 申请信号量，申请失败则挂起等待 */
  36:D:/BearPi/LiteOS/osal_semp_demo/targets/STM32L431_BearPi/Demos/osal_kernel_demo\osal_semp_demo.c ****         osal_semp_pend(sync_semp, cn_osal_timeout_forever);
  98              		.loc 1 36 0 discriminator 1
  99 000a 064B     		ldr	r3, .L7+4
 100 000c 1B68     		ldr	r3, [r3]
 101 000e 4FF0FF31 		mov	r1, #-1
 102 0012 1846     		mov	r0, r3
 103 0014 FFF7FEFF 		bl	osal_semp_pend
  37:D:/BearPi/LiteOS/osal_semp_demo/targets/STM32L431_BearPi/Demos/osal_kernel_demo\osal_semp_demo.c **** 
  38:D:/BearPi/LiteOS/osal_semp_demo/targets/STM32L431_BearPi/Demos/osal_kernel_demo\osal_semp_demo.c ****         /* 一旦申请到信号量，则恢复执行 */
  39:D:/BearPi/LiteOS/osal_semp_demo/targets/STM32L431_BearPi/Demos/osal_kernel_demo\osal_semp_demo.c ****         printf("task 2 access a semp!\r\n");
 104              		.loc 1 39 0 discriminator 1
 105 0018 0348     		ldr	r0, .L7+8
 106 001a FFF7FEFF 		bl	puts
  33:D:/BearPi/LiteOS/osal_semp_demo/targets/STM32L431_BearPi/Demos/osal_kernel_demo\osal_semp_demo.c **** 
 107              		.loc 1 33 0 discriminator 1
 108 001e F1E7     		b	.L6
 109              	.L8:
 110              		.align	2
 111              	.L7:
 112 0020 18000000 		.word	.LC1
 113 0024 00000000 		.word	sync_semp
 114 0028 38000000 		.word	.LC2
 115              		.cfi_endproc
 116              	.LFE4:
 118              		.section	.rodata
 119 004f 00       		.align	2
 120              	.LC3:
 121 0050 73796E63 		.ascii	"sync_semp semp create success.\015\000"
 121      5F73656D 
ARM GAS  C:\Users\LY\AppData\Local\Temp\ccQSeGzK.s 			page 4


 121      70207365 
 121      6D702063 
 121      72656174 
 122              		.align	2
 123              	.LC4:
 124 0070 75736572 		.ascii	"user_task1\000"
 124      5F746173 
 124      6B3100
 125 007b 00       		.align	2
 126              	.LC5:
 127 007c 75736572 		.ascii	"user_task2\000"
 127      5F746173 
 127      6B3200
 128              		.section	.text.standard_app_demo_main,"ax",%progbits
 129              		.align	1
 130              		.global	standard_app_demo_main
 131              		.syntax unified
 132              		.thumb
 133              		.thumb_func
 134              		.fpu fpv4-sp-d16
 136              	standard_app_demo_main:
 137              	.LFB5:
  40:D:/BearPi/LiteOS/osal_semp_demo/targets/STM32L431_BearPi/Demos/osal_kernel_demo\osal_semp_demo.c ****     }
  41:D:/BearPi/LiteOS/osal_semp_demo/targets/STM32L431_BearPi/Demos/osal_kernel_demo\osal_semp_demo.c **** }
  42:D:/BearPi/LiteOS/osal_semp_demo/targets/STM32L431_BearPi/Demos/osal_kernel_demo\osal_semp_demo.c **** 
  43:D:/BearPi/LiteOS/osal_semp_demo/targets/STM32L431_BearPi/Demos/osal_kernel_demo\osal_semp_demo.c **** /* 标准demo启动函数，函数名不要修改，否则会影响下一步实验 */
  44:D:/BearPi/LiteOS/osal_semp_demo/targets/STM32L431_BearPi/Demos/osal_kernel_demo\osal_semp_demo.c **** int standard_app_demo_main()
  45:D:/BearPi/LiteOS/osal_semp_demo/targets/STM32L431_BearPi/Demos/osal_kernel_demo\osal_semp_demo.c **** {
 138              		.loc 1 45 0
 139              		.cfi_startproc
 140              		@ args = 0, pretend = 0, frame = 0
 141              		@ frame_needed = 1, uses_anonymous_args = 0
 142 0000 80B5     		push	{r7, lr}
 143              	.LCFI4:
 144              		.cfi_def_cfa_offset 8
 145              		.cfi_offset 7, -8
 146              		.cfi_offset 14, -4
 147 0002 82B0     		sub	sp, sp, #8
 148              	.LCFI5:
 149              		.cfi_def_cfa_offset 16
 150 0004 02AF     		add	r7, sp, #8
 151              	.LCFI6:
 152              		.cfi_def_cfa 7, 8
  46:D:/BearPi/LiteOS/osal_semp_demo/targets/STM32L431_BearPi/Demos/osal_kernel_demo\osal_semp_demo.c ****     /* 创建信号量sync_semp */
  47:D:/BearPi/LiteOS/osal_semp_demo/targets/STM32L431_BearPi/Demos/osal_kernel_demo\osal_semp_demo.c ****     osal_semp_create(&sync_semp, 1, 0);
 153              		.loc 1 47 0
 154 0006 0022     		movs	r2, #0
 155 0008 0121     		movs	r1, #1
 156 000a 1048     		ldr	r0, .L11
 157 000c FFF7FEFF 		bl	osal_semp_create
  48:D:/BearPi/LiteOS/osal_semp_demo/targets/STM32L431_BearPi/Demos/osal_kernel_demo\osal_semp_demo.c ****     printf("sync_semp semp create success.\r\n");
 158              		.loc 1 48 0
 159 0010 0F48     		ldr	r0, .L11+4
 160 0012 FFF7FEFF 		bl	puts
  49:D:/BearPi/LiteOS/osal_semp_demo/targets/STM32L431_BearPi/Demos/osal_kernel_demo\osal_semp_demo.c **** 
  50:D:/BearPi/LiteOS/osal_semp_demo/targets/STM32L431_BearPi/Demos/osal_kernel_demo\osal_semp_demo.c ****     /* 创建任务task1 */
  51:D:/BearPi/LiteOS/osal_semp_demo/targets/STM32L431_BearPi/Demos/osal_kernel_demo\osal_semp_demo.c ****     osal_task_create("user_task1",user_task1_entry,NULL,0x400,NULL,USER_TASK1_PRI);
ARM GAS  C:\Users\LY\AppData\Local\Temp\ccQSeGzK.s 			page 5


 161              		.loc 1 51 0
 162 0016 0C23     		movs	r3, #12
 163 0018 0193     		str	r3, [sp, #4]
 164 001a 0023     		movs	r3, #0
 165 001c 0093     		str	r3, [sp]
 166 001e 4FF48063 		mov	r3, #1024
 167 0022 0022     		movs	r2, #0
 168 0024 0B49     		ldr	r1, .L11+8
 169 0026 0C48     		ldr	r0, .L11+12
 170 0028 FFF7FEFF 		bl	osal_task_create
  52:D:/BearPi/LiteOS/osal_semp_demo/targets/STM32L431_BearPi/Demos/osal_kernel_demo\osal_semp_demo.c **** 
  53:D:/BearPi/LiteOS/osal_semp_demo/targets/STM32L431_BearPi/Demos/osal_kernel_demo\osal_semp_demo.c ****     /* 创建任务task2 */
  54:D:/BearPi/LiteOS/osal_semp_demo/targets/STM32L431_BearPi/Demos/osal_kernel_demo\osal_semp_demo.c ****     osal_task_create("user_task2",user_task2_entry,NULL,0x400,NULL,USER_TASK2_PRI);
 171              		.loc 1 54 0
 172 002c 0B23     		movs	r3, #11
 173 002e 0193     		str	r3, [sp, #4]
 174 0030 0023     		movs	r3, #0
 175 0032 0093     		str	r3, [sp]
 176 0034 4FF48063 		mov	r3, #1024
 177 0038 0022     		movs	r2, #0
 178 003a 0849     		ldr	r1, .L11+16
 179 003c 0848     		ldr	r0, .L11+20
 180 003e FFF7FEFF 		bl	osal_task_create
  55:D:/BearPi/LiteOS/osal_semp_demo/targets/STM32L431_BearPi/Demos/osal_kernel_demo\osal_semp_demo.c **** 
  56:D:/BearPi/LiteOS/osal_semp_demo/targets/STM32L431_BearPi/Demos/osal_kernel_demo\osal_semp_demo.c ****     return 0;
 181              		.loc 1 56 0
 182 0042 0023     		movs	r3, #0
  57:D:/BearPi/LiteOS/osal_semp_demo/targets/STM32L431_BearPi/Demos/osal_kernel_demo\osal_semp_demo.c **** }...
 183              		.loc 1 57 0
 184 0044 1846     		mov	r0, r3
 185 0046 BD46     		mov	sp, r7
 186              	.LCFI7:
 187              		.cfi_def_cfa_register 13
 188              		@ sp needed
 189 0048 80BD     		pop	{r7, pc}
 190              	.L12:
 191 004a 00BF     		.align	2
 192              	.L11:
 193 004c 00000000 		.word	sync_semp
 194 0050 50000000 		.word	.LC3
 195 0054 00000000 		.word	user_task1_entry
 196 0058 70000000 		.word	.LC4
 197 005c 00000000 		.word	user_task2_entry
 198 0060 7C000000 		.word	.LC5
 199              		.cfi_endproc
 200              	.LFE5:
 202              		.text
 203              	.Letext0:
 204              		.file 2 "c:\\users\\ly\\opensourcetools\\gnu tools arm embedded\\7 2018-q2-update\\arm-none-eabi\\
 205              		.file 3 "c:\\users\\ly\\opensourcetools\\gnu tools arm embedded\\7 2018-q2-update\\arm-none-eabi\\
 206              		.file 4 "c:\\users\\ly\\opensourcetools\\gnu tools arm embedded\\7 2018-q2-update\\lib\\gcc\\arm-n
 207              		.file 5 "c:\\users\\ly\\opensourcetools\\gnu tools arm embedded\\7 2018-q2-update\\arm-none-eabi\\
 208              		.file 6 "C:/Users/LY/.icode/sdk/IoT_LINK_1.0.0/iot_link/os/osal/osal_types.h"
ARM GAS  C:\Users\LY\AppData\Local\Temp\ccQSeGzK.s 			page 6

